target datalayout = "e-m:e-p270:32:32-p271:32:32-p272:64:64-i64:64-i128:128-f80:128-n8:16:32:64-S128"
target triple = "x86_64-pc-linux-gnu"

%class.LBMStreamDialog = type { %class.QDialog, ptr, ptr, ptr }
%class.QDialog = type { %class.QWidget }
%class.QWidget = type { %class.QObject, %class.QPaintDevice.base, ptr }
%class.QObject = type { ptr, %class.QScopedPointer }
%class.QScopedPointer = type { ptr }
%class.QPaintDevice.base = type <{ ptr, i16 }>

@_ZTV15LBMStreamDialog = external unnamed_addr constant { [59 x ptr], [10 x ptr] }, align 8
@_ZN19LBMStreamDialogInfoD1Ev = unnamed_addr alias void (ptr), ptr @_ZN19LBMStreamDialogInfoD2Ev

; Function Attrs: mustprogress nounwind uwtable
define void @_ZN15LBMStreamDialogD2Ev(ptr noundef nonnull align 8 dereferenceable(64) %0) unnamed_addr #1 align 2 {
  %2 = alloca ptr, align 8
  store ptr %0, ptr %2, align 8
  %3 = load ptr, ptr %2, align 8
  store ptr getelementptr inbounds ({ [59 x ptr], [10 x ptr] }, ptr @_ZTV15LBMStreamDialog, i32 0, i32 0, i32 2), ptr %3, align 8
  %4 = getelementptr inbounds i8, ptr %3, i64 16
  store ptr getelementptr inbounds ({ [59 x ptr], [10 x ptr] }, ptr @_ZTV15LBMStreamDialog, i32 0, i32 1, i32 2), ptr %4, align 8
  %5 = getelementptr inbounds %class.LBMStreamDialog, ptr %3, i32 0, i32 1
  %6 = load ptr, ptr %5, align 8
  %7 = icmp eq ptr %6, null
  br i1 %7, label %9, label %8

8:                                                ; preds = %1
  call void @_ZdlPv(ptr noundef %6) #14
  br label %9

9:                                                ; preds = %8, %1
  %10 = getelementptr inbounds %class.LBMStreamDialog, ptr %3, i32 0, i32 2
  %11 = load ptr, ptr %10, align 8
  %12 = icmp ne ptr %11, null
  br i1 %12, label %13, label %19

13:                                               ; preds = %9
  %14 = getelementptr inbounds %class.LBMStreamDialog, ptr %3, i32 0, i32 2
  %15 = load ptr, ptr %14, align 8
  %16 = icmp eq ptr %15, null
  br i1 %16, label %18, label %17

17:                                               ; preds = %13
  call void @_ZN19LBMStreamDialogInfoD1Ev(ptr noundef nonnull align 8 dereferenceable(16) %15) #13
  call void @_ZdlPv(ptr noundef %15) #14
  br label %18

18:                                               ; preds = %17, %13
  br label %19

19:                                               ; preds = %18, %9
  call void @_ZN7QDialogD2Ev(ptr noundef nonnull align 8 dereferenceable(40) %3) #13
  ret void
}